target datalayout = "e-m:e-p270:32:32-p271:32:32-p272:64:64-i64:64-i128:128-f80:128-n8:16:32:64-S128"
target triple = "x86_64-pc-linux-gnu"

; Function Attrs: nounwind uwtable
define i32 @stbiw__zlib_bitrev(i32 noundef %0, i32 noundef %1) #0 {
  %3 = alloca i32, align 4
  %4 = alloca i32, align 4
  %5 = alloca i32, align 4
  store i32 %0, ptr %3, align 4, !tbaa !3
  store i32 %1, ptr %4, align 4, !tbaa !3
  call void @llvm.lifetime.start.p0(i64 4, ptr %5) #11
  store i32 0, ptr %5, align 4, !tbaa !3
  br label %6

6:                                                ; preds = %10, %2
  %7 = load i32, ptr %4, align 4, !tbaa !3
  %8 = add nsw i32 %7, -1
  store i32 %8, ptr %4, align 4, !tbaa !3
  %9 = icmp ne i32 %7, 0
  br i1 %9, label %10, label %18

10:                                               ; preds = %6
  %11 = load i32, ptr %5, align 4, !tbaa !3
  %12 = shl i32 %11, 1
  %13 = load i32, ptr %3, align 4, !tbaa !3
  %14 = and i32 %13, 1
  %15 = or i32 %12, %14
  store i32 %15, ptr %5, align 4, !tbaa !3
  %16 = load i32, ptr %3, align 4, !tbaa !3
  %17 = ashr i32 %16, 1
  store i32 %17, ptr %3, align 4, !tbaa !3
  br label %6, !llvm.loop !46

18:                                               ; preds = %6
  %19 = load i32, ptr %5, align 4, !tbaa !3
  call void @llvm.lifetime.end.p0(i64 4, ptr %5) #11
  ret i32 %19
}