; Function Attrs: nofree norecurse nosync nounwind memory(none) uwtable
define i32 @stbiw__zlib_bitrev(i32 noundef %0, i32 noundef %1) local_unnamed_addr #15 {
  %.not7 = icmp eq i32 %1, 0
  br i1 %.not7, label %._crit_edge, label %.lr.ph

.lr.ph:                                           ; preds = %2, %.lr.ph
  %.010 = phi i32 [ %6, %.lr.ph ], [ 0, %2 ]
  %.059 = phi i32 [ %3, %.lr.ph ], [ %1, %2 ]
  %.068 = phi i32 [ %7, %.lr.ph ], [ %0, %2 ]
  %3 = add nsw i32 %.059, -1
  %4 = shl i32 %.010, 1
  %5 = and i32 %.068, 1
  %6 = or disjoint i32 %4, %5
  %7 = ashr i32 %.068, 1
  %.not = icmp eq i32 %3, 0
  br i1 %.not, label %._crit_edge, label %.lr.ph, !llvm.loop !36

._crit_edge:                                      ; preds = %.lr.ph, %2
  %.0.lcssa = phi i32 [ 0, %2 ], [ %6, %.lr.ph ]
  ret i32 %.0.lcssa
}